ccopy_reg
_reconstructor
p0
(csklearn.linear_model.base
LinearRegression
p1
c__builtin__
object
p2
Ntp3
Rp4
(dp5
S'normalize'
p6
I00
sS'n_jobs'
p7
NsS'rank_'
p8
I2
sS'fit_intercept'
p9
I01
sS'_residues'
p10
cnumpy.core.multiarray
scalar
p11
(cnumpy
dtype
p12
(S'f8'
p13
I0
I1
tp14
Rp15
(I3
S'<'
p16
NNNI-1
I-1
I0
tp17
bS'\x89\x83\xedg\x82\xedv@'
p18
tp19
Rp20
sS'coef_'
p21
cnumpy.core.multiarray
_reconstruct
p22
(cnumpy
ndarray
p23
(I0
tp24
S'b'
p25
tp26
Rp27
(I1
(L2L
tp28
g15
I00
S'M\xa9\x9f\xa1^)\x14@j5\xe3\x81K\x9e\x1b@'
p29
tp30
bsS'_sklearn_version'
p31
S'0.20.2'
p32
sS'copy_X'
p33
I01
sS'intercept_'
p34
g11
(g15
S'\x10c{\xf6\xb4,\x18@'
p35
tp36
Rp37
sS'singular_'
p38
g22
(g23
(I0
tp39
g25
tp40
Rp41
(I1
(L2L
tp42
g15
I00
S"\xd9\xe6\xef\xab\x8fg'@v\x11\x8d\xe5\x86t\x0e@"
p43
tp44
bsb.